Certificate:
    Data:
        Version: 3 (0x2)
        Serial Number:
            6b:c7:c8:8e:cc:95:58:4a:72:a8:07:10:81:a5:c9:12
        Signature Algorithm: sha256WithRSAEncryption
        Issuer: C=RU, ST=123, L=SOCHI, O=Otklik Power Agency, OU=IT, CN=Easy-RSA CA/emailAddress=e.pwd@ya.ru
        Validity
            Not Before: Feb  7 11:36:25 2024 GMT
            Not After : Feb  4 11:36:25 2034 GMT
        Subject: C=RU, ST=123, L=SOCHI, O=Otklik Power Agency, OU=IT, CN=docker-imac/emailAddress=e.pwd@ya.ru
        Subject Public Key Info:
            Public Key Algorithm: rsaEncryption
                RSA Public-Key: (1024 bit)
                Modulus:
                    00:d7:cd:3d:f8:7f:e7:a0:40:92:67:0c:e2:32:33:
                    13:58:5d:5c:db:64:0c:03:97:73:7b:5f:b6:e9:96:
                    da:d5:68:b4:34:48:1e:4d:af:7f:77:78:db:e0:59:
                    6e:95:77:76:b2:9a:d7:90:ed:ed:39:60:bc:ad:08:
                    47:03:89:95:7c:67:a7:9d:33:66:d5:cc:72:67:32:
                    ff:50:79:d1:73:d8:fa:e0:4a:b1:9f:fb:a7:ce:e1:
                    64:12:b7:1e:5b:1d:2a:ef:cb:11:e2:6b:59:55:9e:
                    2a:c6:ed:84:e9:70:a5:70:5b:7e:d2:00:dc:47:cf:
                    a4:80:a9:95:39:e4:35:98:47
                Exponent: 65537 (0x10001)
        X509v3 extensions:
            X509v3 Basic Constraints: 
                CA:FALSE
            X509v3 Subject Key Identifier: 
                A8:E4:E3:29:EF:57:83:FC:9B:F7:1C:4E:27:9B:A8:1B:7F:FB:F5:7C
            X509v3 Authority Key Identifier: 
                keyid:58:8D:F5:4F:E9:B7:FD:6A:6B:9A:B5:29:2C:03:76:54:B0:2B:3F:BA
                DirName:/C=RU/ST=123/L=SOCHI/O=Otklik Power Agency/OU=IT/CN=Easy-RSA CA/emailAddress=e.pwd@ya.ru
                serial:1E:94:B3:D1:3B:0A:10:E4:D1:13:4C:58:A5:F9:74:8B:9A:0F:B5:23

            X509v3 Extended Key Usage: 
                TLS Web Client Authentication
            X509v3 Key Usage: 
                Digital Signature
    Signature Algorithm: sha256WithRSAEncryption
         70:94:01:4c:7a:4b:a0:53:92:c7:b6:18:52:16:bf:2f:25:09:
         ad:a5:eb:ea:fc:87:82:f2:3d:52:d5:c9:de:b7:9d:1e:16:9b:
         a9:a6:dd:31:11:7a:f6:a8:8b:26:ad:2f:1f:10:20:e6:b1:45:
         b5:75:8f:d6:32:b9:58:1a:7c:f7:5f:01:0b:0c:eb:2e:03:bd:
         7f:29:7c:44:a4:b5:3e:48:d4:5e:c3:79:3b:14:e3:96:58:ea:
         7d:40:b0:5f:72:eb:1c:32:0a:59:b7:02:d8:58:55:36:dc:da:
         06:e9:e9:30:03:21:94:71:4a:42:49:0d:d2:32:1b:9f:d8:3f:
         cb:9f
-----BEGIN CERTIFICATE-----
MIIDtDCCAx2gAwIBAgIQa8fIjsyVWEpyqAcQgaXJEjANBgkqhkiG9w0BAQsFADCB
iDELMAkGA1UEBhMCUlUxDDAKBgNVBAgMAzEyMzEOMAwGA1UEBwwFU09DSEkxHDAa
BgNVBAoME090a2xpayBQb3dlciBBZ2VuY3kxCzAJBgNVBAsMAklUMRQwEgYDVQQD
DAtFYXN5LVJTQSBDQTEaMBgGCSqGSIb3DQEJARYLZS5wd2RAeWEucnUwHhcNMjQw
MjA3MTEzNjI1WhcNMzQwMjA0MTEzNjI1WjCBiDELMAkGA1UEBhMCUlUxDDAKBgNV
BAgMAzEyMzEOMAwGA1UEBwwFU09DSEkxHDAaBgNVBAoME090a2xpayBQb3dlciBB
Z2VuY3kxCzAJBgNVBAsMAklUMRQwEgYDVQQDDAtkb2NrZXItaW1hYzEaMBgGCSqG
SIb3DQEJARYLZS5wd2RAeWEucnUwgZ8wDQYJKoZIhvcNAQEBBQADgY0AMIGJAoGB
ANfNPfh/56BAkmcM4jIzE1hdXNtkDAOXc3tftumW2tVotDRIHk2vf3d42+BZbpV3
drKa15Dt7TlgvK0IRwOJlXxnp50zZtXMcmcy/1B50XPY+uBKsZ/7p87hZBK3Hlsd
Ku/LEeJrWVWeKsbthOlwpXBbftIA3EfPpICplTnkNZhHAgMBAAGjggEbMIIBFzAJ
BgNVHRMEAjAAMB0GA1UdDgQWBBSo5OMp71eD/Jv3HE4nm6gbf/v1fDCByAYDVR0j
BIHAMIG9gBRYjfVP6bf9amuatSksA3ZUsCs/uqGBjqSBizCBiDELMAkGA1UEBhMC
UlUxDDAKBgNVBAgMAzEyMzEOMAwGA1UEBwwFU09DSEkxHDAaBgNVBAoME090a2xp
ayBQb3dlciBBZ2VuY3kxCzAJBgNVBAsMAklUMRQwEgYDVQQDDAtFYXN5LVJTQSBD
QTEaMBgGCSqGSIb3DQEJARYLZS5wd2RAeWEucnWCFB6Us9E7ChDk0RNMWKX5dIua
D7UjMBMGA1UdJQQMMAoGCCsGAQUFBwMCMAsGA1UdDwQEAwIHgDANBgkqhkiG9w0B
AQsFAAOBgQBwlAFMekugU5LHthhSFr8vJQmtpevq/IeC8j1S1cnet50eFpuppt0x
EXr2qIsmrS8fECDmsUW1dY/WMrlYGnz3XwELDOsuA71/KXxEpLU+SNRew3k7FOOW
WOp9QLBfcuscMgpZtwLYWFU23NoG6ekwAyGUcUpCSQ3SMhuf2D/Lnw==
-----END CERTIFICATE-----
